target datalayout = "e-m:e-p270:32:32-p271:32:32-p272:64:64-i64:64-i128:128-f80:128-n8:16:32:64-S128"
target triple = "x86_64-pc-linux-gnu"

%struct.VP8BitReader = type { i64, i32, i32, ptr, ptr, ptr, i32 }

; Function Attrs: nounwind uwtable
define hidden void @VP8LoadFinalBytes(ptr noundef %0) #0 {
  %2 = alloca ptr, align 8
  store ptr %0, ptr %2, align 8
  %3 = load ptr, ptr %2, align 8
  %4 = getelementptr inbounds %struct.VP8BitReader, ptr %3, i32 0, i32 3
  %5 = load ptr, ptr %4, align 8
  %6 = load ptr, ptr %2, align 8
  %7 = getelementptr inbounds %struct.VP8BitReader, ptr %6, i32 0, i32 4
  %8 = load ptr, ptr %7, align 8
  %9 = icmp ult ptr %5, %8
  br i1 %9, label %10, label %28

10:                                               ; preds = %1
  %11 = load ptr, ptr %2, align 8
  %12 = getelementptr inbounds %struct.VP8BitReader, ptr %11, i32 0, i32 2
  %13 = load i32, ptr %12, align 4
  %14 = add nsw i32 %13, 8
  store i32 %14, ptr %12, align 4
  %15 = load ptr, ptr %2, align 8
  %16 = getelementptr inbounds %struct.VP8BitReader, ptr %15, i32 0, i32 3
  %17 = load ptr, ptr %16, align 8
  %18 = getelementptr inbounds i8, ptr %17, i32 1
  store ptr %18, ptr %16, align 8
  %19 = load i8, ptr %17, align 1
  %20 = zext i8 %19 to i64
  %21 = load ptr, ptr %2, align 8
  %22 = getelementptr inbounds %struct.VP8BitReader, ptr %21, i32 0, i32 0
  %23 = load i64, ptr %22, align 8
  %24 = shl i64 %23, 8
  %25 = or i64 %20, %24
  %26 = load ptr, ptr %2, align 8
  %27 = getelementptr inbounds %struct.VP8BitReader, ptr %26, i32 0, i32 0
  store i64 %25, ptr %27, align 8
  br label %48

28:                                               ; preds = %1
  %29 = load ptr, ptr %2, align 8
  %30 = getelementptr inbounds %struct.VP8BitReader, ptr %29, i32 0, i32 6
  %31 = load i32, ptr %30, align 8
  %32 = icmp ne i32 %31, 0
  br i1 %32, label %44, label %33

33:                                               ; preds = %28
  %34 = load ptr, ptr %2, align 8
  %35 = getelementptr inbounds %struct.VP8BitReader, ptr %34, i32 0, i32 0
  %36 = load i64, ptr %35, align 8
  %37 = shl i64 %36, 8
  store i64 %37, ptr %35, align 8
  %38 = load ptr, ptr %2, align 8
  %39 = getelementptr inbounds %struct.VP8BitReader, ptr %38, i32 0, i32 2
  %40 = load i32, ptr %39, align 4
  %41 = add nsw i32 %40, 8
  store i32 %41, ptr %39, align 4
  %42 = load ptr, ptr %2, align 8
  %43 = getelementptr inbounds %struct.VP8BitReader, ptr %42, i32 0, i32 6
  store i32 1, ptr %43, align 8
  br label %47

44:                                               ; preds = %28
  %45 = load ptr, ptr %2, align 8
  %46 = getelementptr inbounds %struct.VP8BitReader, ptr %45, i32 0, i32 2
  store i32 0, ptr %46, align 4
  br label %47

47:                                               ; preds = %44, %33
  br label %48

48:                                               ; preds = %47, %10
  ret void
}