; Function Attrs: mustprogress nofree norecurse nosync nounwind willreturn memory(read, argmem: readwrite, inaccessiblemem: none) uwtable
define hidden void @VP8LoadFinalBytes(ptr nocapture noundef %0) local_unnamed_addr #3 {
  %2 = getelementptr inbounds i8, ptr %0, i64 16
  %3 = load ptr, ptr %2, align 8
  %4 = getelementptr inbounds i8, ptr %0, i64 24
  %5 = load ptr, ptr %4, align 8
  %6 = icmp ult ptr %3, %5
  br i1 %6, label %7, label %17

7:                                                ; preds = %1
  %8 = getelementptr inbounds i8, ptr %0, i64 12
  %9 = load i32, ptr %8, align 4
  %10 = add nsw i32 %9, 8
  store i32 %10, ptr %8, align 4
  %11 = getelementptr inbounds i8, ptr %3, i64 1
  store ptr %11, ptr %2, align 8
  %12 = load i8, ptr %3, align 1
  %13 = zext i8 %12 to i64
  %14 = load i64, ptr %0, align 8
  %15 = shl i64 %14, 8
  %16 = or disjoint i64 %15, %13
  store i64 %16, ptr %0, align 8
  br label %28

17:                                               ; preds = %1
  %18 = getelementptr inbounds i8, ptr %0, i64 40
  %19 = load i32, ptr %18, align 8
  %.not = icmp eq i32 %19, 0
  br i1 %.not, label %20, label %26

20:                                               ; preds = %17
  %21 = load i64, ptr %0, align 8
  %22 = shl i64 %21, 8
  store i64 %22, ptr %0, align 8
  %23 = getelementptr inbounds i8, ptr %0, i64 12
  %24 = load i32, ptr %23, align 4
  %25 = add nsw i32 %24, 8
  store i32 %25, ptr %23, align 4
  store i32 1, ptr %18, align 8
  br label %28

26:                                               ; preds = %17
  %27 = getelementptr inbounds i8, ptr %0, i64 12
  store i32 0, ptr %27, align 4
  br label %28

28:                                               ; preds = %20, %26, %7
  ret void
}